; Function Attrs: mustprogress uwtable
define void @_ZN19OpenColorIO_v2_4dev20DisplayViewTransformC2Ev(ptr nocapture noundef nonnull writeonly align 8 dereferenceable(16) %this) unnamed_addr #0 align 2 personality ptr @__gxx_personality_v0 {
entry:
  store ptr getelementptr inbounds ({ [9 x ptr] }, ptr @_ZTVN19OpenColorIO_v2_4dev20DisplayViewTransformE, i64 0, i32 0, i64 2), ptr %this, align 8
  %call = tail call noalias noundef nonnull dereferenceable(112) ptr @_Znwm(i64 noundef 112) #12
  %m_impl = getelementptr inbounds i8, ptr %this, i64 8
  store i32 0, ptr %call, align 8
  %m_src.i = getelementptr inbounds i8, ptr %call, i64 8
  tail call void @_ZNSt7__cxx1112basic_stringIcSt11char_traitsIcESaIcEEC1Ev(ptr noundef nonnull align 8 dereferenceable(32) %m_src.i) #13
  %m_display.i = getelementptr inbounds i8, ptr %call, i64 40
  tail call void @_ZNSt7__cxx1112basic_stringIcSt11char_traitsIcESaIcEEC1Ev(ptr noundef nonnull align 8 dereferenceable(32) %m_display.i) #13
  %m_view.i = getelementptr inbounds i8, ptr %call, i64 72
  tail call void @_ZNSt7__cxx1112basic_stringIcSt11char_traitsIcESaIcEEC1Ev(ptr noundef nonnull align 8 dereferenceable(32) %m_view.i) #13
  %m_looksBypass.i = getelementptr inbounds i8, ptr %call, i64 104
  store i8 0, ptr %m_looksBypass.i, align 8
  %m_dataBypass.i = getelementptr inbounds i8, ptr %call, i64 105
  store i8 1, ptr %m_dataBypass.i, align 1
  store ptr %call, ptr %m_impl, align 8
  ret void
}